Certificate:
    Data:
        Version: 1 (0x0)
        Serial Number: 3 (0x3)
    Signature Algorithm: sha256WithRSAEncryption
        Issuer: C=ah, ST=anhui, L=anhui, O=anhui, OU=anhui, CN=anhui/emailAddress=anhui
        Validity
            Not Before: Feb 11 08:10:35 2020 GMT
            Not After : Feb 10 08:10:35 2021 GMT
        Subject: C=ah, ST=anhui, O=anhui, OU=anhui, CN=anhui/emailAddress=anhui
        Subject Public Key Info:
            Public Key Algorithm: rsaEncryption
                Public-Key: (1024 bit)
                Modulus:
                    00:c8:38:55:02:79:fb:52:1e:0b:9e:8a:b9:15:ce:
                    5b:db:29:d3:9e:50:76:8e:ac:1d:b0:80:97:5a:59:
                    b7:70:a6:09:ac:7a:3f:27:6f:ae:0e:06:24:86:ab:
                    e7:f3:b5:a3:ec:5b:6c:9f:5e:59:26:00:a8:11:1f:
                    a7:d6:0c:b4:09:75:4c:a1:52:62:dd:f6:bc:fa:42:
                    26:ed:ab:45:b1:ee:52:97:ee:da:95:20:5a:cc:eb:
                    ca:d3:f8:3a:92:05:fb:ac:9a:49:c7:9c:81:b5:fe:
                    de:cb:34:62:d0:6b:ff:8a:32:14:1d:0f:ba:9f:0a:
                    18:d7:d6:4a:58:28:54:3c:0b
                Exponent: 65537 (0x10001)
    Signature Algorithm: sha256WithRSAEncryption
         17:63:2a:c3:a3:ee:dc:94:73:4a:13:33:3b:5b:57:02:c0:1b:
         03:15:ac:45:92:e9:98:43:61:dd:b3:09:d3:bf:47:7b:36:d3:
         06:3c:38:3d:66:f2:28:e2:48:40:39:cb:b7:17:94:91:91:32:
         9a:41:51:b1:2e:19:ad:4d:ce:08:90:c7:fc:83:5c:11:1d:70:
         1d:cd:ee:61:e2:3c:a5:49:5e:43:5b:86:c4:9a:16:9f:07:9a:
         4e:8b:7a:b6:ac:94:f0:9d:d4:ed:6a:ca:a5:75:e2:69:9a:45:
         89:93:fa:62:06:d3:6d:0d:98:14:0f:37:be:93:fb:da:33:93:
         5b:ee:cc:b2:87:5f:2a:44:b5:f2:fb:eb:8f:bb:fd:8b:9d:58:
         97:8f:b9:ce:82:8b:d3:6b:17:3c:da:95:77:4f:18:9d:ab:50:
         fe:33:92:69:44:d8:17:3d:a8:39:88:ea:53:50:39:2c:08:9c:
         58:da:6f:a5:6a:57:1d:7c:58:1f:a3:27:e0:cf:3c:9a:fd:38:
         65:5c:26:f5:1d:e5:88:0b:1a:b7:95:7a:a5:1e:35:51:cb:13:
         c3:ed:d3:8e:a2:e0:65:91:07:e5:18:f5:3f:ab:fe:7a:e2:94:
         67:76:9a:2e:d7:ba:a9:c8:37:e8:fe:b4:f9:fe:0d:92:09:5f:
         e3:73:56:81:83:b7:a5:10:8b:8d:6e:14:ce:95:24:0a:a4:02:
         c7:23:e4:a7:6b:ad:bf:c4:b8:dc:33:d4:05:aa:05:b4:a5:6a:
         54:42:19:de:bc:1d:35:50:5d:7d:4c:19:84:fa:02:83:cd:f4:
         46:42:d2:69:e4:12:a9:bc:fa:6c:0a:72:7c:45:78:71:93:0b:
         91:17:14:86:f9:13:e6:92:23:9e:1d:5c:67:31:d3:d4:a5:7f:
         94:7b:7f:39:38:43:9e:68:32:c8:5e:ee:bc:fb:e8:0d:37:61:
         11:d9:1e:c6:20:2d:07:2b:83:15:45:a2:09:49:a5:a5:a8:7b:
         74:d2:82:c1:8c:c8:74:50:16:8f:69:9e:01:86:51:81:cc:27:
         0d:0a:70:a6:05:a6:fb:01:9a:20:77:f3:37:d2:fa:fb:eb:1c:
         2a:7d:2b:d7:df:84:91:b7:8a:8b:96:ed:25:34:16:e9:75:dd:
         de:0a:b6:cc:df:13:61:c5:af:4c:4e:07:4a:14:cb:c2:8e:2c:
         22:a9:c5:46:14:e4:b3:5e:f0:25:7c:da:6e:47:1c:4c:7a:57:
         0d:a9:b3:c8:73:b3:da:bc:c1:3e:4e:f5:15:af:ed:9c:ce:5f:
         0a:0f:bd:51:62:40:9a:66:f9:20:97:6c:b9:c6:4c:c4:1b:b3:
         f4:d2:3a:60:a0:3a:14:1e
-----BEGIN CERTIFICATE-----
MIIDxjCCAa4CAQMwDQYJKoZIhvcNAQELBQAwczELMAkGA1UEBhMCYWgxDjAMBgNV
BAgMBWFuaHVpMQ4wDAYDVQQHDAVhbmh1aTEOMAwGA1UECgwFYW5odWkxDjAMBgNV
BAsMBWFuaHVpMQ4wDAYDVQQDDAVhbmh1aTEUMBIGCSqGSIb3DQEJARYFYW5odWkw
HhcNMjAwMjExMDgxMDM1WhcNMjEwMjEwMDgxMDM1WjBjMQswCQYDVQQGEwJhaDEO
MAwGA1UECAwFYW5odWkxDjAMBgNVBAoMBWFuaHVpMQ4wDAYDVQQLDAVhbmh1aTEO
MAwGA1UEAwwFYW5odWkxFDASBgkqhkiG9w0BCQEWBWFuaHVpMIGfMA0GCSqGSIb3
DQEBAQUAA4GNADCBiQKBgQDIOFUCeftSHgueirkVzlvbKdOeUHaOrB2wgJdaWbdw
pgmsej8nb64OBiSGq+fztaPsW2yfXlkmAKgRH6fWDLQJdUyhUmLd9rz6Qibtq0Wx
7lKX7tqVIFrM68rT+DqSBfusmknHnIG1/t7LNGLQa/+KMhQdD7qfChjX1kpYKFQ8
CwIDAQABMA0GCSqGSIb3DQEBCwUAA4ICAQAXYyrDo+7clHNKEzM7W1cCwBsDFaxF
kumYQ2HdswnTv0d7NtMGPDg9ZvIo4khAOcu3F5SRkTKaQVGxLhmtTc4IkMf8g1wR
HXAdze5h4jylSV5DW4bEmhafB5pOi3q2rJTwndTtasqldeJpmkWJk/piBtNtDZgU
Dze+k/vaM5Nb7syyh18qRLXy++uPu/2LnViXj7nOgovTaxc82pV3Txidq1D+M5Jp
RNgXPag5iOpTUDksCJxY2m+lalcdfFgfoyfgzzya/ThlXCb1HeWICxq3lXqlHjVR
yxPD7dOOouBlkQflGPU/q/564pRndpou17qpyDfo/rT5/g2SCV/jc1aBg7elEIuN
bhTOlSQKpALHI+Sna62/xLjcM9QFqgW0pWpUQhnevB01UF19TBmE+gKDzfRGQtJp
5BKpvPpsCnJ8RXhxkwuRFxSG+RPmkiOeHVxnMdPUpX+Ue385OEOeaDLIXu68++gN
N2ER2R7GIC0HK4MVRaIJSaWlqHt00oLBjMh0UBaPaZ4BhlGBzCcNCnCmBab7AZog
d/M30vr76xwqfSvX34SRt4qLlu0lNBbpdd3eCrbM3xNhxa9MTgdKFMvCjiwiqcVG
FOSzXvAlfNpuRxxMelcNqbPIc7PavME+TvUVr+2czl8KD71RYkCaZvkgl2y5xkzE
G7P00jpgoDoUHg==
-----END CERTIFICATE-----
